target datalayout = "e-m:e-p270:32:32-p271:32:32-p272:64:64-i64:64-i128:128-f80:128-n8:16:32:64-S128"
target triple = "x86_64-pc-linux-gnu"

%struct.H5FD_log_fapl_t = type { ptr, i64, i64 }
%struct.H5FD_log_t = type { %struct.H5FD_t, i32, i64, i64, i8, [1024 x i8], i64, i64, i8, ptr, ptr, ptr, i64, i64, i64, i64, double, double, double, double, i64, ptr, %struct.H5FD_log_fapl_t }
%struct.H5FD_t = type { i64, ptr, i64, i32, i64, i64, i64, i64, i64, i8 }

@H5FD_init_g = external global i8, align 1
@H5_libterm_g = external global i8, align 1

; Function Attrs: nounwind uwtable
define internal i32 @H5FD__log_cmp(ptr noundef %0, ptr noundef %1) #0 {
  %3 = alloca ptr, align 8
  %4 = alloca ptr, align 8
  %5 = alloca ptr, align 8
  %6 = alloca ptr, align 8
  %7 = alloca i32, align 4
  store ptr %0, ptr %3, align 8, !tbaa !24
  store ptr %1, ptr %4, align 8, !tbaa !24
  call void @llvm.lifetime.start.p0(i64 8, ptr %5) #9
  %8 = load ptr, ptr %3, align 8, !tbaa !24
  store ptr %8, ptr %5, align 8, !tbaa !26
  call void @llvm.lifetime.start.p0(i64 8, ptr %6) #9
  %9 = load ptr, ptr %4, align 8, !tbaa !24
  store ptr %9, ptr %6, align 8, !tbaa !26
  call void @llvm.lifetime.start.p0(i64 4, ptr %7) #9
  store i32 0, ptr %7, align 4, !tbaa !3
  %10 = load i8, ptr @H5FD_init_g, align 1, !tbaa !7, !range !9, !noundef !10
  %11 = trunc i8 %10 to i1
  br i1 %11, label %16, label %12

12:                                               ; preds = %2
  %13 = load i8, ptr @H5_libterm_g, align 1, !tbaa !7, !range !9, !noundef !10
  %14 = trunc i8 %13 to i1
  %15 = xor i1 %14, true
  br label %16

16:                                               ; preds = %12, %2
  %17 = phi i1 [ true, %2 ], [ %15, %12 ]
  %18 = xor i1 %17, true
  %19 = xor i1 %18, true
  %20 = zext i1 %19 to i32
  %21 = sext i32 %20 to i64
  %22 = call i64 @llvm.expect.i64(i64 %21, i64 1)
  %23 = icmp ne i64 %22, 0
  br i1 %23, label %24, label %74

24:                                               ; preds = %16
  %25 = load ptr, ptr %5, align 8, !tbaa !26
  %26 = getelementptr inbounds nuw %struct.H5FD_log_t, ptr %25, i32 0, i32 6
  %27 = load i64, ptr %26, align 8, !tbaa !43
  %28 = load ptr, ptr %6, align 8, !tbaa !26
  %29 = getelementptr inbounds nuw %struct.H5FD_log_t, ptr %28, i32 0, i32 6
  %30 = load i64, ptr %29, align 8, !tbaa !43
  %31 = icmp ult i64 %27, %30
  br i1 %31, label %32, label %36

32:                                               ; preds = %24
  br label %33

33:                                               ; preds = %32
  store i32 -1, ptr %7, align 4, !tbaa !3
  br label %73

34:                                               ; No predecessors!
  br label %35

35:                                               ; preds = %34
  br label %36

36:                                               ; preds = %35, %24
  %37 = load ptr, ptr %5, align 8, !tbaa !26
  %38 = getelementptr inbounds nuw %struct.H5FD_log_t, ptr %37, i32 0, i32 6
  %39 = load i64, ptr %38, align 8, !tbaa !43
  %40 = load ptr, ptr %6, align 8, !tbaa !26
  %41 = getelementptr inbounds nuw %struct.H5FD_log_t, ptr %40, i32 0, i32 6
  %42 = load i64, ptr %41, align 8, !tbaa !43
  %43 = icmp ugt i64 %39, %42
  br i1 %43, label %44, label %48

44:                                               ; preds = %36
  br label %45

45:                                               ; preds = %44
  store i32 1, ptr %7, align 4, !tbaa !3
  br label %73

46:                                               ; No predecessors!
  br label %47

47:                                               ; preds = %46
  br label %48

48:                                               ; preds = %47, %36
  %49 = load ptr, ptr %5, align 8, !tbaa !26
  %50 = getelementptr inbounds nuw %struct.H5FD_log_t, ptr %49, i32 0, i32 7
  %51 = load i64, ptr %50, align 8, !tbaa !45
  %52 = load ptr, ptr %6, align 8, !tbaa !26
  %53 = getelementptr inbounds nuw %struct.H5FD_log_t, ptr %52, i32 0, i32 7
  %54 = load i64, ptr %53, align 8, !tbaa !45
  %55 = icmp ult i64 %51, %54
  br i1 %55, label %56, label %60

56:                                               ; preds = %48
  br label %57

57:                                               ; preds = %56
  store i32 -1, ptr %7, align 4, !tbaa !3
  br label %73

58:                                               ; No predecessors!
  br label %59

59:                                               ; preds = %58
  br label %60

60:                                               ; preds = %59, %48
  %61 = load ptr, ptr %5, align 8, !tbaa !26
  %62 = getelementptr inbounds nuw %struct.H5FD_log_t, ptr %61, i32 0, i32 7
  %63 = load i64, ptr %62, align 8, !tbaa !45
  %64 = load ptr, ptr %6, align 8, !tbaa !26
  %65 = getelementptr inbounds nuw %struct.H5FD_log_t, ptr %64, i32 0, i32 7
  %66 = load i64, ptr %65, align 8, !tbaa !45
  %67 = icmp ugt i64 %63, %66
  br i1 %67, label %68, label %72

68:                                               ; preds = %60
  br label %69

69:                                               ; preds = %68
  store i32 1, ptr %7, align 4, !tbaa !3
  br label %73

70:                                               ; No predecessors!
  br label %71

71:                                               ; preds = %70
  br label %72

72:                                               ; preds = %71, %60
  br label %73

73:                                               ; preds = %72, %69, %57, %45, %33
  br label %74

74:                                               ; preds = %73, %16
  %75 = load i32, ptr %7, align 4, !tbaa !3
  call void @llvm.lifetime.end.p0(i64 4, ptr %7) #9
  call void @llvm.lifetime.end.p0(i64 8, ptr %6) #9
  call void @llvm.lifetime.end.p0(i64 8, ptr %5) #9
  ret i32 %75
}